; Function Attrs: mustprogress nofree nounwind willreturn memory(argmem: read) uwtable
define noundef i32 @_Z15toku_keycomparePKvmS0_m(ptr noundef readonly captures(none) %0, i64 noundef %1, ptr noundef readonly captures(none) %2, i64 noundef %3) local_unnamed_addr #10 {
  %5 = tail call i64 @llvm.umin.i64(i64 %1, i64 %3)
  %6 = tail call i32 @memcmp(ptr noundef %0, ptr noundef %2, i64 noundef %5) #18
  %.not = icmp eq i32 %6, 0
  br i1 %.not, label %7, label %11, !prof !21

7:                                                ; preds = %4
  %8 = icmp ult i64 %1, %3
  br i1 %8, label %11, label %9

9:                                                ; preds = %7
  %10 = icmp ugt i64 %1, %3
  %. = zext i1 %10 to i32
  br label %11

11:                                               ; preds = %9, %7, %4
  %.0 = phi i32 [ %6, %4 ], [ -1, %7 ], [ %., %9 ]
  ret i32 %.0
}